target datalayout = "e-m:e-p270:32:32-p271:32:32-p272:64:64-i64:64-i128:128-f80:128-n8:16:32:64-S128"
target triple = "x86_64-pc-linux-gnu"

%struct.MotionPixelsContext = type { ptr, ptr, %struct.BswapDSPContext, ptr, i32, i32, i32, i32, [16 x %struct.HuffCode], %struct.VLC, ptr, ptr, [3 x i8], ptr, i32 }
%struct.BswapDSPContext = type { ptr, ptr }
%struct.HuffCode = type { i8, i8 }
%struct.VLC = type { i32, ptr, i32, i32 }
%struct.GetBitContext = type { ptr, ptr, i32, i32, i32 }

@.str.4 = private unnamed_addr constant [25 x i8] c"invalid code size %d/%d\0A\00", align 1
@.str.5 = private unnamed_addr constant [16 x i8] c"too many codes\0A\00", align 1

; Function Attrs: inlinehint nounwind uwtable
define internal i32 @get_bits1(ptr noundef %0) #6 {
  %2 = alloca ptr, align 8
  %3 = alloca i32, align 4
  %4 = alloca i8, align 1
  store ptr %0, ptr %2, align 8, !tbaa !79
  call void @llvm.lifetime.start.p0(i64 4, ptr %3) #9
  %5 = load ptr, ptr %2, align 8, !tbaa !79
  %6 = getelementptr inbounds nuw %struct.GetBitContext, ptr %5, i32 0, i32 2
  %7 = load i32, ptr %6, align 8, !tbaa !86
  store i32 %7, ptr %3, align 4, !tbaa !32
  call void @llvm.lifetime.start.p0(i64 1, ptr %4) #9
  %8 = load ptr, ptr %2, align 8, !tbaa !79
  %9 = getelementptr inbounds nuw %struct.GetBitContext, ptr %8, i32 0, i32 0
  %10 = load ptr, ptr %9, align 8, !tbaa !81
  %11 = load i32, ptr %3, align 4, !tbaa !32
  %12 = lshr i32 %11, 3
  %13 = zext i32 %12 to i64
  %14 = getelementptr inbounds nuw i8, ptr %10, i64 %13
  %15 = load i8, ptr %14, align 1, !tbaa !59
  store i8 %15, ptr %4, align 1, !tbaa !59
  %16 = load i32, ptr %3, align 4, !tbaa !32
  %17 = and i32 %16, 7
  %18 = load i8, ptr %4, align 1, !tbaa !59
  %19 = zext i8 %18 to i32
  %20 = shl i32 %19, %17
  %21 = trunc i32 %20 to i8
  store i8 %21, ptr %4, align 1, !tbaa !59
  %22 = load i8, ptr %4, align 1, !tbaa !59
  %23 = zext i8 %22 to i32
  %24 = ashr i32 %23, 7
  %25 = trunc i32 %24 to i8
  store i8 %25, ptr %4, align 1, !tbaa !59
  %26 = load ptr, ptr %2, align 8, !tbaa !79
  %27 = getelementptr inbounds nuw %struct.GetBitContext, ptr %26, i32 0, i32 2
  %28 = load i32, ptr %27, align 8, !tbaa !86
  %29 = load ptr, ptr %2, align 8, !tbaa !79
  %30 = getelementptr inbounds nuw %struct.GetBitContext, ptr %29, i32 0, i32 4
  %31 = load i32, ptr %30, align 8, !tbaa !84
  %32 = icmp slt i32 %28, %31
  br i1 %32, label %33, label %36

33:                                               ; preds = %1
  %34 = load i32, ptr %3, align 4, !tbaa !32
  %35 = add i32 %34, 1
  store i32 %35, ptr %3, align 4, !tbaa !32
  br label %36

36:                                               ; preds = %33, %1
  %37 = load i32, ptr %3, align 4, !tbaa !32
  %38 = load ptr, ptr %2, align 8, !tbaa !79
  %39 = getelementptr inbounds nuw %struct.GetBitContext, ptr %38, i32 0, i32 2
  store i32 %37, ptr %39, align 8, !tbaa !86
  %40 = load i8, ptr %4, align 1, !tbaa !59
  %41 = zext i8 %40 to i32
  call void @llvm.lifetime.end.p0(i64 1, ptr %4) #9
  call void @llvm.lifetime.end.p0(i64 4, ptr %3) #9
  ret i32 %41
}

; Function Attrs: nounwind uwtable
define internal i32 @mp_get_code(ptr noundef %0, ptr noundef %1, i32 noundef %2) #1 {
  %4 = alloca i32, align 4
  %5 = alloca ptr, align 8
  %6 = alloca ptr, align 8
  %7 = alloca i32, align 4
  store ptr %0, ptr %5, align 8, !tbaa !29
  store ptr %1, ptr %6, align 8, !tbaa !79
  store i32 %2, ptr %7, align 4, !tbaa !32
  br label %8

8:                                                ; preds = %35, %3
  %9 = load ptr, ptr %6, align 8, !tbaa !79
  %10 = call i32 @get_bits1(ptr noundef %9)
  %11 = icmp ne i32 %10, 0
  br i1 %11, label %12, label %36

12:                                               ; preds = %8
  %13 = load i32, ptr %7, align 4, !tbaa !32
  %14 = add nsw i32 %13, 1
  store i32 %14, ptr %7, align 4, !tbaa !32
  %15 = load i32, ptr %7, align 4, !tbaa !32
  %16 = load ptr, ptr %5, align 8, !tbaa !29
  %17 = getelementptr inbounds nuw %struct.MotionPixelsContext, ptr %16, i32 0, i32 7
  %18 = load i32, ptr %17, align 4, !tbaa !65
  %19 = icmp sgt i32 %15, %18
  br i1 %19, label %20, label %28

20:                                               ; preds = %12
  %21 = load ptr, ptr %5, align 8, !tbaa !29
  %22 = getelementptr inbounds nuw %struct.MotionPixelsContext, ptr %21, i32 0, i32 0
  %23 = load ptr, ptr %22, align 8, !tbaa !35
  %24 = load i32, ptr %7, align 4, !tbaa !32
  %25 = load ptr, ptr %5, align 8, !tbaa !29
  %26 = getelementptr inbounds nuw %struct.MotionPixelsContext, ptr %25, i32 0, i32 7
  %27 = load i32, ptr %26, align 4, !tbaa !65
  call void (ptr, i32, ptr, ...) @av_log(ptr noundef %23, i32 noundef 16, ptr noundef @.str.4, i32 noundef %24, i32 noundef %27)
  store i32 -1094995529, ptr %4, align 4
  br label %60

28:                                               ; preds = %12
  %29 = load ptr, ptr %5, align 8, !tbaa !29
  %30 = load ptr, ptr %6, align 8, !tbaa !79
  %31 = load i32, ptr %7, align 4, !tbaa !32
  %32 = call i32 @mp_get_code(ptr noundef %29, ptr noundef %30, i32 noundef %31)
  %33 = icmp slt i32 %32, 0
  br i1 %33, label %34, label %35

34:                                               ; preds = %28
  store i32 -1094995529, ptr %4, align 4
  br label %60

35:                                               ; preds = %28
  br label %8, !llvm.loop !98

36:                                               ; preds = %8
  %37 = load ptr, ptr %5, align 8, !tbaa !29
  %38 = getelementptr inbounds nuw %struct.MotionPixelsContext, ptr %37, i32 0, i32 6
  %39 = load i32, ptr %38, align 8, !tbaa !94
  %40 = load ptr, ptr %5, align 8, !tbaa !29
  %41 = getelementptr inbounds nuw %struct.MotionPixelsContext, ptr %40, i32 0, i32 5
  %42 = load i32, ptr %41, align 4, !tbaa !62
  %43 = icmp sge i32 %39, %42
  br i1 %43, label %44, label %48

44:                                               ; preds = %36
  %45 = load ptr, ptr %5, align 8, !tbaa !29
  %46 = getelementptr inbounds nuw %struct.MotionPixelsContext, ptr %45, i32 0, i32 0
  %47 = load ptr, ptr %46, align 8, !tbaa !35
  call void (ptr, i32, ptr, ...) @av_log(ptr noundef %47, i32 noundef 16, ptr noundef @.str.5)
  store i32 -1094995529, ptr %4, align 4
  br label %60

48:                                               ; preds = %36
  %49 = load i32, ptr %7, align 4, !tbaa !32
  %50 = trunc i32 %49 to i8
  %51 = load ptr, ptr %5, align 8, !tbaa !29
  %52 = getelementptr inbounds nuw %struct.MotionPixelsContext, ptr %51, i32 0, i32 8
  %53 = load ptr, ptr %5, align 8, !tbaa !29
  %54 = getelementptr inbounds nuw %struct.MotionPixelsContext, ptr %53, i32 0, i32 6
  %55 = load i32, ptr %54, align 8, !tbaa !94
  %56 = add nsw i32 %55, 1
  store i32 %56, ptr %54, align 8, !tbaa !94
  %57 = sext i32 %55 to i64
  %58 = getelementptr inbounds [16 x %struct.HuffCode], ptr %52, i64 0, i64 %57
  %59 = getelementptr inbounds nuw %struct.HuffCode, ptr %58, i32 0, i32 0
  store i8 %50, ptr %59, align 2, !tbaa !99
  store i32 0, ptr %4, align 4
  br label %60

60:                                               ; preds = %48, %44, %34, %20
  %61 = load i32, ptr %4, align 4
  ret i32 %61
}