; Function Attrs: nounwind uwtable
define internal fastcc range(i32 -1094995529, 1) i32 @mp_get_code(ptr noundef captures(none) %0, ptr noundef nonnull captures(none) %1, i32 noundef range(i32 -2147483647, -2147483648) %2) unnamed_addr #1 {
  %4 = getelementptr inbounds nuw i8, ptr %1, i64 16
  %5 = getelementptr inbounds nuw i8, ptr %1, i64 24
  %6 = getelementptr inbounds nuw i8, ptr %0, i64 52
  br label %7

7:                                                ; preds = %26, %3
  %.0 = phi i32 [ %2, %3 ], [ %22, %26 ]
  %8 = load i32, ptr %4, align 8, !tbaa !55
  %9 = load ptr, ptr %1, align 8, !tbaa !50
  %10 = lshr i32 %8, 3
  %11 = zext nneg i32 %10 to i64
  %12 = getelementptr inbounds nuw i8, ptr %9, i64 %11
  %13 = load i8, ptr %12, align 1, !tbaa !39
  %14 = load i32, ptr %5, align 8, !tbaa !53
  %15 = icmp slt i32 %8, %14
  %16 = zext i1 %15 to i32
  %spec.select.i = add i32 %8, %16
  %17 = zext i8 %13 to i32
  %18 = and i32 %8, 7
  store i32 %spec.select.i, ptr %4, align 8, !tbaa !55
  %19 = lshr exact i32 128, %18
  %20 = and i32 %19, %17
  %.not = icmp eq i32 %20, 0
  br i1 %.not, label %29, label %21

21:                                               ; preds = %7
  %22 = add nsw i32 %.0, 1
  %23 = load i32, ptr %6, align 4, !tbaa !65
  %.not21 = icmp slt i32 %.0, %23
  br i1 %.not21, label %26, label %24

24:                                               ; preds = %21
  %25 = load ptr, ptr %0, align 8, !tbaa !30
  tail call void (ptr, i32, ptr, ...) @av_log(ptr noundef %25, i32 noundef 16, ptr noundef nonnull @.str.4, i32 noundef %22, i32 noundef %23) #11
  br label %.loopexit

26:                                               ; preds = %21
  %27 = tail call fastcc i32 @mp_get_code(ptr noundef nonnull %0, ptr noundef %1, i32 noundef %22)
  %28 = icmp slt i32 %27, 0
  br i1 %28, label %.loopexit, label %7, !llvm.loop !90

29:                                               ; preds = %7
  %30 = getelementptr inbounds nuw i8, ptr %0, i64 48
  %31 = load i32, ptr %30, align 8, !tbaa !67
  %32 = getelementptr inbounds nuw i8, ptr %0, i64 44
  %33 = load i32, ptr %32, align 4, !tbaa !59
  %.not20 = icmp slt i32 %31, %33
  br i1 %.not20, label %36, label %34

34:                                               ; preds = %29
  %35 = load ptr, ptr %0, align 8, !tbaa !30
  tail call void (ptr, i32, ptr, ...) @av_log(ptr noundef %35, i32 noundef 16, ptr noundef nonnull @.str.5) #11
  br label %.loopexit

36:                                               ; preds = %29
  %37 = trunc i32 %.0 to i8
  %38 = getelementptr inbounds nuw i8, ptr %0, i64 56
  %39 = add nsw i32 %31, 1
  store i32 %39, ptr %30, align 8, !tbaa !67
  %40 = sext i32 %31 to i64
  %41 = getelementptr inbounds [16 x %struct.HuffCode], ptr %38, i64 0, i64 %40
  store i8 %37, ptr %41, align 2, !tbaa !91
  br label %.loopexit

.loopexit:                                        ; preds = %26, %36, %34, %24
  %.016 = phi i32 [ -1094995529, %24 ], [ -1094995529, %34 ], [ 0, %36 ], [ -1094995529, %26 ]
  ret i32 %.016
}